target datalayout = "e-m:e-p270:32:32-p271:32:32-p272:64:64-i64:64-i128:128-f80:128-n8:16:32:64-S128"
target triple = "x86_64-unknown-linux-gnu"

%"class.icu_75::Formattable" = type { %"class.icu_75::UObject", %union.anon, ptr, ptr, i32, %"class.icu_75::UnicodeString" }
%"class.icu_75::UObject" = type { ptr }
%union.anon = type { %struct.anon }
%struct.anon = type { ptr, i32 }
%"class.icu_75::UnicodeString" = type { %"class.icu_75::Replaceable", %"union.icu_75::UnicodeString::StackBufferOrFields" }
%"class.icu_75::Replaceable" = type { %"class.icu_75::UObject" }
%"union.icu_75::UnicodeString::StackBufferOrFields" = type { %struct.anon.1, [32 x i8] }
%struct.anon.1 = type { i16, i32, i32, ptr }

; Function Attrs: mustprogress nounwind uwtable
define internal noundef signext i8 @_ZL9U_SUCCESS10UErrorCode(i32 noundef %code) #0 {
entry:
  %code.addr = alloca i32, align 4
  store i32 %code, ptr %code.addr, align 4
  %0 = load i32, ptr %code.addr, align 4
  %cmp = icmp sle i32 %0, 0
  %conv = zext i1 %cmp to i8
  ret i8 %conv
}

; Function Attrs: mustprogress nounwind uwtable
define noundef ptr @_ZNK6icu_7511Formattable8getBogusEv(ptr noundef nonnull align 8 dereferenceable(112) %this) #0 align 2 {
entry:
  %this.addr = alloca ptr, align 8
  store ptr %this, ptr %this.addr, align 8
  %this1 = load ptr, ptr %this.addr, align 8
  %fBogus = getelementptr inbounds %"class.icu_75::Formattable", ptr %this1, i32 0, i32 5
  ret ptr %fBogus
}

; Function Attrs: mustprogress uwtable
define internal void @_ZN6icu_75L8setErrorER10UErrorCodeS0_(ptr noundef nonnull align 4 dereferenceable(4) %ec, i32 noundef %err) #1 {
entry:
  %ec.addr = alloca ptr, align 8
  %err.addr = alloca i32, align 4
  store ptr %ec, ptr %ec.addr, align 8
  store i32 %err, ptr %err.addr, align 4
  %0 = load ptr, ptr %ec.addr, align 8
  %1 = load i32, ptr %0, align 4
  %call = call noundef signext i8 @_ZL9U_SUCCESS10UErrorCode(i32 noundef %1)
  %tobool = icmp ne i8 %call, 0
  br i1 %tobool, label %if.then, label %if.end

if.then:                                          ; preds = %entry
  %2 = load i32, ptr %err.addr, align 4
  %3 = load ptr, ptr %ec.addr, align 8
  store i32 %2, ptr %3, align 4
  br label %if.end

if.end:                                           ; preds = %if.then, %entry
  ret void
}

; Function Attrs: mustprogress uwtable
define noundef nonnull align 8 dereferenceable(64) ptr @_ZNK6icu_7511Formattable9getStringER10UErrorCode(ptr noundef nonnull align 8 dereferenceable(112) %this, ptr noundef nonnull align 4 dereferenceable(4) %status) #1 align 2 {
entry:
  %retval = alloca ptr, align 8
  %this.addr = alloca ptr, align 8
  %status.addr = alloca ptr, align 8
  store ptr %this, ptr %this.addr, align 8
  store ptr %status, ptr %status.addr, align 8
  %this1 = load ptr, ptr %this.addr, align 8
  %fType = getelementptr inbounds %"class.icu_75::Formattable", ptr %this1, i32 0, i32 4
  %0 = load i32, ptr %fType, align 8
  %cmp = icmp ne i32 %0, 3
  br i1 %cmp, label %if.then, label %if.end

if.then:                                          ; preds = %entry
  %1 = load ptr, ptr %status.addr, align 8
  call void @_ZN6icu_75L8setErrorER10UErrorCodeS0_(ptr noundef nonnull align 4 dereferenceable(4) %1, i32 noundef 3)
  %call = call noundef ptr @_ZNK6icu_7511Formattable8getBogusEv(ptr noundef nonnull align 8 dereferenceable(112) %this1)
  store ptr %call, ptr %retval, align 8
  br label %return

if.end:                                           ; preds = %entry
  %fValue = getelementptr inbounds %"class.icu_75::Formattable", ptr %this1, i32 0, i32 1
  %2 = load ptr, ptr %fValue, align 8
  %cmp2 = icmp eq ptr %2, null
  br i1 %cmp2, label %if.then3, label %if.end5

if.then3:                                         ; preds = %if.end
  %3 = load ptr, ptr %status.addr, align 8
  call void @_ZN6icu_75L8setErrorER10UErrorCodeS0_(ptr noundef nonnull align 4 dereferenceable(4) %3, i32 noundef 7)
  %call4 = call noundef ptr @_ZNK6icu_7511Formattable8getBogusEv(ptr noundef nonnull align 8 dereferenceable(112) %this1)
  store ptr %call4, ptr %retval, align 8
  br label %return

if.end5:                                          ; preds = %if.end
  %fValue6 = getelementptr inbounds %"class.icu_75::Formattable", ptr %this1, i32 0, i32 1
  %4 = load ptr, ptr %fValue6, align 8
  store ptr %4, ptr %retval, align 8
  br label %return

return:                                           ; preds = %if.end5, %if.then3, %if.then
  %5 = load ptr, ptr %retval, align 8
  ret ptr %5
}