; Function Attrs: mustprogress nofree norecurse nosync nounwind willreturn memory(argmem: readwrite) uwtable
define noundef nonnull align 8 dereferenceable(64) ptr @_ZNK6icu_7511Formattable9getStringER10UErrorCode(ptr noundef nonnull readonly align 8 dereferenceable(112) %this, ptr nocapture noundef nonnull align 4 dereferenceable(4) %status) local_unnamed_addr #12 align 2 {
entry:
  %fType = getelementptr inbounds i8, ptr %this, i64 40
  %0 = load i32, ptr %fType, align 8
  %cmp.not = icmp eq i32 %0, 3
  br i1 %cmp.not, label %if.end, label %if.then

if.then:                                          ; preds = %entry
  %1 = load i32, ptr %status, align 4
  %cmp.i.i = icmp sgt i32 %1, 0
  br i1 %cmp.i.i, label %_ZN6icu_75L8setErrorER10UErrorCodeS0_.exit, label %if.then.i

if.then.i:                                        ; preds = %if.then
  store i32 3, ptr %status, align 4
  br label %_ZN6icu_75L8setErrorER10UErrorCodeS0_.exit

_ZN6icu_75L8setErrorER10UErrorCodeS0_.exit:       ; preds = %if.then, %if.then.i
  %fBogus.i = getelementptr inbounds i8, ptr %this, i64 48
  br label %return

if.end:                                           ; preds = %entry
  %fValue = getelementptr inbounds i8, ptr %this, i64 8
  %2 = load ptr, ptr %fValue, align 8
  %cmp2 = icmp eq ptr %2, null
  br i1 %cmp2, label %if.then3, label %return

if.then3:                                         ; preds = %if.end
  %3 = load i32, ptr %status, align 4
  %cmp.i.i2 = icmp sgt i32 %3, 0
  br i1 %cmp.i.i2, label %_ZN6icu_75L8setErrorER10UErrorCodeS0_.exit4, label %if.then.i3

if.then.i3:                                       ; preds = %if.then3
  store i32 7, ptr %status, align 4
  br label %_ZN6icu_75L8setErrorER10UErrorCodeS0_.exit4

_ZN6icu_75L8setErrorER10UErrorCodeS0_.exit4:      ; preds = %if.then3, %if.then.i3
  %fBogus.i5 = getelementptr inbounds i8, ptr %this, i64 48
  br label %return

return:                                           ; preds = %if.end, %_ZN6icu_75L8setErrorER10UErrorCodeS0_.exit4, %_ZN6icu_75L8setErrorER10UErrorCodeS0_.exit
  %retval.0 = phi ptr [ %fBogus.i, %_ZN6icu_75L8setErrorER10UErrorCodeS0_.exit ], [ %fBogus.i5, %_ZN6icu_75L8setErrorER10UErrorCodeS0_.exit4 ], [ %2, %if.end ]
  ret ptr %retval.0
}